; Function Attrs: nounwind uwtable
define internal void @_toggle_side_borders_accel_callback(ptr readnone captures(none) %0) #0 {
  %2 = load ptr, ptr getelementptr inbounds nuw (i8, ptr @darktable, i64 104), align 8, !tbaa !15
  %3 = load ptr, ptr %2, align 8, !tbaa !63
  tail call void @dt_ui_toggle_panels_visibility(ptr noundef %3)
  %4 = load ptr, ptr getelementptr inbounds nuw (i8, ptr @darktable, i64 64), align 8, !tbaa !150
  tail call void @dt_dev_invalidate(ptr noundef %4) #18
  %5 = load ptr, ptr getelementptr inbounds nuw (i8, ptr @darktable, i64 104), align 8, !tbaa !15
  %6 = load ptr, ptr %5, align 8, !tbaa !63
  %7 = getelementptr inbounds nuw i8, ptr %6, i64 176
  %8 = load ptr, ptr %7, align 8, !tbaa !112
  tail call void @gtk_widget_queue_draw(ptr noundef %8) #18
  ret void
}